target datalayout = "e-m:e-p270:32:32-p271:32:32-p272:64:64-i64:64-i128:128-f80:128-n8:16:32:64-S128"
target triple = "x86_64-pc-linux-gnu"

%struct.Abc_ZddMan_ = type { i32, i32, i32, i32, i32, i32, ptr, ptr, ptr, ptr, i32, i32, i64, ptr, ptr, ptr }
%struct.Abc_ZddObj_ = type { i32, i32, i32 }

@.str.2 = private unnamed_addr constant [2 x i8] c"{\00", align 1
@.str.3 = private unnamed_addr constant [5 x i8] c" %2d\00", align 1
@.str.4 = private unnamed_addr constant [4 x i8] c" }\0A\00", align 1
@.str.5 = private unnamed_addr constant [10 x i8] c"Empty set\00", align 1
@.str.6 = private unnamed_addr constant [8 x i8] c"(%d %d)\00", align 1
@.str.7 = private unnamed_addr constant [2 x i8] c"\0A\00", align 1

; Function Attrs: inlinehint nounwind uwtable
define internal ptr @Abc_ZddNode(ptr noundef %0, i32 noundef %1) #2 {
  %3 = alloca ptr, align 8
  %4 = alloca i32, align 4
  store ptr %0, ptr %3, align 8, !tbaa !3
  store i32 %1, ptr %4, align 4, !tbaa !10
  %5 = load ptr, ptr %3, align 8, !tbaa !3
  %6 = getelementptr inbounds nuw %struct.Abc_ZddMan_, ptr %5, i32 0, i32 9
  %7 = load ptr, ptr %6, align 8, !tbaa !22
  %8 = load i32, ptr %4, align 4, !tbaa !10
  %9 = sext i32 %8 to i64
  %10 = getelementptr inbounds %struct.Abc_ZddObj_, ptr %7, i64 %9
  ret ptr %10
}

; Function Attrs: nounwind uwtable
define void @Abc_ZddPermPrint(ptr noundef %0, i32 noundef %1) #0 {
  %3 = alloca ptr, align 8
  %4 = alloca i32, align 4
  %5 = alloca i32, align 4
  store ptr %0, ptr %3, align 8, !tbaa !8
  store i32 %1, ptr %4, align 4, !tbaa !10
  call void @llvm.lifetime.start.p0(i64 4, ptr %5) #12
  %6 = call i32 (ptr, ...) @printf(ptr noundef @.str.2)
  store i32 0, ptr %5, align 4, !tbaa !10
  br label %7

7:                                                ; preds = %18, %2
  %8 = load i32, ptr %5, align 4, !tbaa !10
  %9 = load i32, ptr %4, align 4, !tbaa !10
  %10 = icmp slt i32 %8, %9
  br i1 %10, label %11, label %21

11:                                               ; preds = %7
  %12 = load ptr, ptr %3, align 8, !tbaa !8
  %13 = load i32, ptr %5, align 4, !tbaa !10
  %14 = sext i32 %13 to i64
  %15 = getelementptr inbounds i32, ptr %12, i64 %14
  %16 = load i32, ptr %15, align 4, !tbaa !10
  %17 = call i32 (ptr, ...) @printf(ptr noundef @.str.3, i32 noundef %16)
  br label %18

18:                                               ; preds = %11
  %19 = load i32, ptr %5, align 4, !tbaa !10
  %20 = add nsw i32 %19, 1
  store i32 %20, ptr %5, align 4, !tbaa !10
  br label %7, !llvm.loop !60

21:                                               ; preds = %7
  %22 = call i32 (ptr, ...) @printf(ptr noundef @.str.4)
  call void @llvm.lifetime.end.p0(i64 4, ptr %5) #12
  ret void
}

; Function Attrs: nounwind uwtable
define void @Abc_ZddComb2Perm(ptr noundef %0, i32 noundef %1, ptr noundef %2, i32 noundef %3) #0 {
  %5 = alloca ptr, align 8
  %6 = alloca i32, align 4
  %7 = alloca ptr, align 8
  %8 = alloca i32, align 4
  %9 = alloca i32, align 4
  %10 = alloca i32, align 4
  store ptr %0, ptr %5, align 8, !tbaa !8
  store i32 %1, ptr %6, align 4, !tbaa !10
  store ptr %2, ptr %7, align 8, !tbaa !8
  store i32 %3, ptr %8, align 4, !tbaa !10
  call void @llvm.lifetime.start.p0(i64 4, ptr %9) #12
  store i32 0, ptr %9, align 4, !tbaa !10
  br label %11

11:                                               ; preds = %21, %4
  %12 = load i32, ptr %9, align 4, !tbaa !10
  %13 = load i32, ptr %8, align 4, !tbaa !10
  %14 = icmp slt i32 %12, %13
  br i1 %14, label %15, label %24

15:                                               ; preds = %11
  %16 = load i32, ptr %9, align 4, !tbaa !10
  %17 = load ptr, ptr %7, align 8, !tbaa !8
  %18 = load i32, ptr %9, align 4, !tbaa !10
  %19 = sext i32 %18 to i64
  %20 = getelementptr inbounds i32, ptr %17, i64 %19
  store i32 %16, ptr %20, align 4, !tbaa !10
  br label %21

21:                                               ; preds = %15
  %22 = load i32, ptr %9, align 4, !tbaa !10
  %23 = add nsw i32 %22, 1
  store i32 %23, ptr %9, align 4, !tbaa !10
  br label %11, !llvm.loop !64

24:                                               ; preds = %11
  %25 = load i32, ptr %6, align 4, !tbaa !10
  %26 = sub nsw i32 %25, 1
  store i32 %26, ptr %9, align 4, !tbaa !10
  br label %27

27:                                               ; preds = %70, %24
  %28 = load i32, ptr %9, align 4, !tbaa !10
  %29 = icmp sge i32 %28, 0
  br i1 %29, label %30, label %73

30:                                               ; preds = %27
  call void @llvm.lifetime.start.p0(i64 4, ptr %10) #12
  %31 = load ptr, ptr %7, align 8, !tbaa !8
  %32 = load ptr, ptr %5, align 8, !tbaa !8
  %33 = load i32, ptr %9, align 4, !tbaa !10
  %34 = sext i32 %33 to i64
  %35 = getelementptr inbounds i32, ptr %32, i64 %34
  %36 = load i32, ptr %35, align 4, !tbaa !10
  %37 = ashr i32 %36, 16
  %38 = sext i32 %37 to i64
  %39 = getelementptr inbounds i32, ptr %31, i64 %38
  %40 = load i32, ptr %39, align 4, !tbaa !10
  store i32 %40, ptr %10, align 4, !tbaa !10
  %41 = load ptr, ptr %7, align 8, !tbaa !8
  %42 = load ptr, ptr %5, align 8, !tbaa !8
  %43 = load i32, ptr %9, align 4, !tbaa !10
  %44 = sext i32 %43 to i64
  %45 = getelementptr inbounds i32, ptr %42, i64 %44
  %46 = load i32, ptr %45, align 4, !tbaa !10
  %47 = and i32 %46, 65535
  %48 = sext i32 %47 to i64
  %49 = getelementptr inbounds i32, ptr %41, i64 %48
  %50 = load i32, ptr %49, align 4, !tbaa !10
  %51 = load ptr, ptr %7, align 8, !tbaa !8
  %52 = load ptr, ptr %5, align 8, !tbaa !8
  %53 = load i32, ptr %9, align 4, !tbaa !10
  %54 = sext i32 %53 to i64
  %55 = getelementptr inbounds i32, ptr %52, i64 %54
  %56 = load i32, ptr %55, align 4, !tbaa !10
  %57 = ashr i32 %56, 16
  %58 = sext i32 %57 to i64
  %59 = getelementptr inbounds i32, ptr %51, i64 %58
  store i32 %50, ptr %59, align 4, !tbaa !10
  %60 = load i32, ptr %10, align 4, !tbaa !10
  %61 = load ptr, ptr %7, align 8, !tbaa !8
  %62 = load ptr, ptr %5, align 8, !tbaa !8
  %63 = load i32, ptr %9, align 4, !tbaa !10
  %64 = sext i32 %63 to i64
  %65 = getelementptr inbounds i32, ptr %62, i64 %64
  %66 = load i32, ptr %65, align 4, !tbaa !10
  %67 = and i32 %66, 65535
  %68 = sext i32 %67 to i64
  %69 = getelementptr inbounds i32, ptr %61, i64 %68
  store i32 %60, ptr %69, align 4, !tbaa !10
  call void @llvm.lifetime.end.p0(i64 4, ptr %10) #12
  br label %70

70:                                               ; preds = %30
  %71 = load i32, ptr %9, align 4, !tbaa !10
  %72 = add nsw i32 %71, -1
  store i32 %72, ptr %9, align 4, !tbaa !10
  br label %27, !llvm.loop !65

73:                                               ; preds = %27
  call void @llvm.lifetime.end.p0(i64 4, ptr %9) #12
  ret void
}

; Function Attrs: nounwind uwtable
define void @Abc_ZddCombPrint(ptr noundef %0, i32 noundef %1) #0 {
  %3 = alloca ptr, align 8
  %4 = alloca i32, align 4
  %5 = alloca i32, align 4
  store ptr %0, ptr %3, align 8, !tbaa !8
  store i32 %1, ptr %4, align 4, !tbaa !10
  call void @llvm.lifetime.start.p0(i64 4, ptr %5) #12
  %6 = load i32, ptr %4, align 4, !tbaa !10
  %7 = icmp eq i32 %6, 0
  br i1 %7, label %8, label %10

8:                                                ; preds = %2
  %9 = call i32 (ptr, ...) @printf(ptr noundef @.str.5)
  br label %10

10:                                               ; preds = %8, %2
  store i32 0, ptr %5, align 4, !tbaa !10
  br label %11

11:                                               ; preds = %29, %10
  %12 = load i32, ptr %5, align 4, !tbaa !10
  %13 = load i32, ptr %4, align 4, !tbaa !10
  %14 = icmp slt i32 %12, %13
  br i1 %14, label %15, label %32

15:                                               ; preds = %11
  %16 = load ptr, ptr %3, align 8, !tbaa !8
  %17 = load i32, ptr %5, align 4, !tbaa !10
  %18 = sext i32 %17 to i64
  %19 = getelementptr inbounds i32, ptr %16, i64 %18
  %20 = load i32, ptr %19, align 4, !tbaa !10
  %21 = ashr i32 %20, 16
  %22 = load ptr, ptr %3, align 8, !tbaa !8
  %23 = load i32, ptr %5, align 4, !tbaa !10
  %24 = sext i32 %23 to i64
  %25 = getelementptr inbounds i32, ptr %22, i64 %24
  %26 = load i32, ptr %25, align 4, !tbaa !10
  %27 = and i32 %26, 65535
  %28 = call i32 (ptr, ...) @printf(ptr noundef @.str.6, i32 noundef %21, i32 noundef %27)
  br label %29

29:                                               ; preds = %15
  %30 = load i32, ptr %5, align 4, !tbaa !10
  %31 = add nsw i32 %30, 1
  store i32 %31, ptr %5, align 4, !tbaa !10
  br label %11, !llvm.loop !61

32:                                               ; preds = %11
  %33 = call i32 (ptr, ...) @printf(ptr noundef @.str.7)
  call void @llvm.lifetime.end.p0(i64 4, ptr %5) #12
  ret void
}

; Function Attrs: nounwind uwtable
define void @Abc_ZddPrint_rec(ptr noundef %0, i32 noundef %1, ptr noundef %2, i32 noundef %3) #0 {
  %5 = alloca ptr, align 8
  %6 = alloca i32, align 4
  %7 = alloca ptr, align 8
  %8 = alloca i32, align 4
  %9 = alloca ptr, align 8
  %10 = alloca i32, align 4
  %11 = alloca [24 x i32], align 16
  %12 = alloca [24 x i32], align 16
  %13 = alloca i32, align 4
  store ptr %0, ptr %5, align 8, !tbaa !3
  store i32 %1, ptr %6, align 4, !tbaa !10
  store ptr %2, ptr %7, align 8, !tbaa !8
  store i32 %3, ptr %8, align 4, !tbaa !10
  call void @llvm.lifetime.start.p0(i64 8, ptr %9) #12
  %14 = load i32, ptr %6, align 4, !tbaa !10
  %15 = icmp eq i32 %14, 0
  br i1 %15, label %16, label %17

16:                                               ; preds = %4
  store i32 1, ptr %10, align 4
  br label %93

17:                                               ; preds = %4
  %18 = load i32, ptr %6, align 4, !tbaa !10
  %19 = icmp eq i32 %18, 1
  br i1 %19, label %20, label %69

20:                                               ; preds = %17
  call void @llvm.lifetime.start.p0(i64 96, ptr %11) #12
  call void @llvm.lifetime.start.p0(i64 96, ptr %12) #12
  call void @llvm.lifetime.start.p0(i64 4, ptr %13) #12
  store i32 0, ptr %13, align 4, !tbaa !10
  br label %21

21:                                               ; preds = %53, %20
  %22 = load i32, ptr %13, align 4, !tbaa !10
  %23 = load i32, ptr %8, align 4, !tbaa !10
  %24 = icmp slt i32 %22, %23
  br i1 %24, label %25, label %56

25:                                               ; preds = %21
  %26 = load ptr, ptr %5, align 8, !tbaa !3
  %27 = getelementptr inbounds nuw %struct.Abc_ZddMan_, ptr %26, i32 0, i32 13
  %28 = load ptr, ptr %27, align 8, !tbaa !39
  %29 = load ptr, ptr %7, align 8, !tbaa !8
  %30 = load i32, ptr %13, align 4, !tbaa !10
  %31 = sext i32 %30 to i64
  %32 = getelementptr inbounds i32, ptr %29, i64 %31
  %33 = load i32, ptr %32, align 4, !tbaa !10
  %34 = sext i32 %33 to i64
  %35 = getelementptr inbounds i32, ptr %28, i64 %34
  %36 = load i32, ptr %35, align 4, !tbaa !10
  %37 = shl i32 %36, 16
  %38 = load ptr, ptr %5, align 8, !tbaa !3
  %39 = getelementptr inbounds nuw %struct.Abc_ZddMan_, ptr %38, i32 0, i32 14
  %40 = load ptr, ptr %39, align 8, !tbaa !40
  %41 = load ptr, ptr %7, align 8, !tbaa !8
  %42 = load i32, ptr %13, align 4, !tbaa !10
  %43 = sext i32 %42 to i64
  %44 = getelementptr inbounds i32, ptr %41, i64 %43
  %45 = load i32, ptr %44, align 4, !tbaa !10
  %46 = sext i32 %45 to i64
  %47 = getelementptr inbounds i32, ptr %40, i64 %46
  %48 = load i32, ptr %47, align 4, !tbaa !10
  %49 = or i32 %37, %48
  %50 = load i32, ptr %13, align 4, !tbaa !10
  %51 = sext i32 %50 to i64
  %52 = getelementptr inbounds [24 x i32], ptr %12, i64 0, i64 %51
  store i32 %49, ptr %52, align 4, !tbaa !10
  br label %53

53:                                               ; preds = %25
  %54 = load i32, ptr %13, align 4, !tbaa !10
  %55 = add nsw i32 %54, 1
  store i32 %55, ptr %13, align 4, !tbaa !10
  br label %21, !llvm.loop !66

56:                                               ; preds = %21
  %57 = getelementptr inbounds [24 x i32], ptr %12, i64 0, i64 0
  %58 = load i32, ptr %8, align 4, !tbaa !10
  call void @Abc_ZddCombPrint(ptr noundef %57, i32 noundef %58)
  %59 = getelementptr inbounds [24 x i32], ptr %12, i64 0, i64 0
  %60 = load i32, ptr %8, align 4, !tbaa !10
  %61 = getelementptr inbounds [24 x i32], ptr %11, i64 0, i64 0
  %62 = load ptr, ptr %5, align 8, !tbaa !3
  %63 = getelementptr inbounds nuw %struct.Abc_ZddMan_, ptr %62, i32 0, i32 3
  %64 = load i32, ptr %63, align 4, !tbaa !38
  call void @Abc_ZddComb2Perm(ptr noundef %59, i32 noundef %60, ptr noundef %61, i32 noundef %64)
  %65 = getelementptr inbounds [24 x i32], ptr %11, i64 0, i64 0
  %66 = load ptr, ptr %5, align 8, !tbaa !3
  %67 = getelementptr inbounds nuw %struct.Abc_ZddMan_, ptr %66, i32 0, i32 3
  %68 = load i32, ptr %67, align 4, !tbaa !38
  call void @Abc_ZddPermPrint(ptr noundef %65, i32 noundef %68)
  store i32 1, ptr %10, align 4
  call void @llvm.lifetime.end.p0(i64 4, ptr %13) #12
  call void @llvm.lifetime.end.p0(i64 96, ptr %12) #12
  call void @llvm.lifetime.end.p0(i64 96, ptr %11) #12
  br label %93

69:                                               ; preds = %17
  %70 = load ptr, ptr %5, align 8, !tbaa !3
  %71 = load i32, ptr %6, align 4, !tbaa !10
  %72 = call ptr @Abc_ZddNode(ptr noundef %70, i32 noundef %71)
  store ptr %72, ptr %9, align 8, !tbaa !46
  %73 = load ptr, ptr %5, align 8, !tbaa !3
  %74 = load ptr, ptr %9, align 8, !tbaa !46
  %75 = getelementptr inbounds nuw %struct.Abc_ZddObj_, ptr %74, i32 0, i32 2
  %76 = load i32, ptr %75, align 4, !tbaa !25
  %77 = load ptr, ptr %7, align 8, !tbaa !8
  %78 = load i32, ptr %8, align 4, !tbaa !10
  call void @Abc_ZddPrint_rec(ptr noundef %73, i32 noundef %76, ptr noundef %77, i32 noundef %78)
  %79 = load ptr, ptr %9, align 8, !tbaa !46
  %80 = load i32, ptr %79, align 4
  %81 = and i32 %80, 2147483647
  %82 = load ptr, ptr %7, align 8, !tbaa !8
  %83 = load i32, ptr %8, align 4, !tbaa !10
  %84 = sext i32 %83 to i64
  %85 = getelementptr inbounds i32, ptr %82, i64 %84
  store i32 %81, ptr %85, align 4, !tbaa !10
  %86 = load ptr, ptr %5, align 8, !tbaa !3
  %87 = load ptr, ptr %9, align 8, !tbaa !46
  %88 = getelementptr inbounds nuw %struct.Abc_ZddObj_, ptr %87, i32 0, i32 1
  %89 = load i32, ptr %88, align 4, !tbaa !23
  %90 = load ptr, ptr %7, align 8, !tbaa !8
  %91 = load i32, ptr %8, align 4, !tbaa !10
  %92 = add nsw i32 %91, 1
  call void @Abc_ZddPrint_rec(ptr noundef %86, i32 noundef %89, ptr noundef %90, i32 noundef %92)
  store i32 0, ptr %10, align 4
  br label %93

93:                                               ; preds = %69, %56, %16
  call void @llvm.lifetime.end.p0(i64 8, ptr %9) #12
  %94 = load i32, ptr %10, align 4
  switch i32 %94, label %96 [
    i32 0, label %95
    i32 1, label %95
  ]

95:                                               ; preds = %93, %93
  ret void

96:                                               ; preds = %93
  unreachable
}