; Function Attrs: nofree nounwind uwtable
define void @Abc_ZddPrint_rec(ptr noundef readonly captures(none) %0, i32 noundef %1, ptr noundef captures(none) %2, i32 noundef %3) local_unnamed_addr #0 {
  %5 = alloca [24 x i32], align 16
  %6 = alloca [24 x i32], align 16
  %7 = getelementptr i8, ptr %0, i64 48
  %8 = sext i32 %3 to i64
  br label %tailrecurse

tailrecurse:                                      ; preds = %53, %4
  %indvars.iv53 = phi i32 [ %indvars.iv.next54, %53 ], [ %3, %4 ]
  %indvars.iv = phi i64 [ %indvars.iv.next, %53 ], [ %8, %4 ]
  %.tr43 = phi i32 [ %63, %53 ], [ %1, %4 ]
  switch i32 %.tr43, label %53 [
    i32 0, label %.loopexit
    i32 1, label %9
  ]

9:                                                ; preds = %tailrecurse
  call void @llvm.lifetime.start.p0(i64 96, ptr nonnull %5) #23
  call void @llvm.lifetime.start.p0(i64 96, ptr nonnull %6) #23
  %10 = icmp sgt i64 %indvars.iv, 0
  br i1 %10, label %.lr.ph, label %._crit_edge.thread

.lr.ph:                                           ; preds = %9
  %11 = getelementptr inbounds nuw i8, ptr %0, i64 72
  %12 = load ptr, ptr %11, align 8, !tbaa !35
  %13 = getelementptr inbounds nuw i8, ptr %0, i64 80
  %14 = load ptr, ptr %13, align 8, !tbaa !36
  %wide.trip.count = zext i32 %indvars.iv53 to i64
  br label %15

15:                                               ; preds = %.lr.ph, %15
  %indvars.iv50 = phi i64 [ 0, %.lr.ph ], [ %indvars.iv.next51, %15 ]
  %16 = getelementptr inbounds nuw i32, ptr %2, i64 %indvars.iv50
  %17 = load i32, ptr %16, align 4, !tbaa !3
  %18 = sext i32 %17 to i64
  %19 = getelementptr inbounds i32, ptr %12, i64 %18
  %20 = load i32, ptr %19, align 4, !tbaa !3
  %21 = shl i32 %20, 16
  %22 = getelementptr inbounds i32, ptr %14, i64 %18
  %23 = load i32, ptr %22, align 4, !tbaa !3
  %24 = or i32 %23, %21
  %25 = getelementptr inbounds nuw [24 x i32], ptr %6, i64 0, i64 %indvars.iv50
  store i32 %24, ptr %25, align 4, !tbaa !3
  %indvars.iv.next51 = add nuw nsw i64 %indvars.iv50, 1
  %exitcond.not = icmp eq i64 %indvars.iv.next51, %wide.trip.count
  br i1 %exitcond.not, label %.lr.ph.preheader.i, label %15, !llvm.loop !58

._crit_edge.thread:                               ; preds = %9
  %26 = icmp eq i64 %indvars.iv, 0
  br i1 %26, label %.thread.i, label %Abc_ZddCombPrint.exit

.thread.i:                                        ; preds = %._crit_edge.thread
  %27 = tail call i32 (ptr, ...) @printf(ptr noundef nonnull dereferenceable(1) @.str.5)
  br label %Abc_ZddCombPrint.exit

.lr.ph.preheader.i:                               ; preds = %15
  %wide.trip.count.i = and i64 %indvars.iv, 4294967295
  br label %.lr.ph.i

.lr.ph.i:                                         ; preds = %.lr.ph.i, %.lr.ph.preheader.i
  %indvars.iv.i = phi i64 [ 0, %.lr.ph.preheader.i ], [ %indvars.iv.next.i, %.lr.ph.i ]
  %28 = getelementptr inbounds nuw i32, ptr %6, i64 %indvars.iv.i
  %29 = load i32, ptr %28, align 4, !tbaa !3
  %30 = ashr i32 %29, 16
  %31 = and i32 %29, 65535
  %32 = tail call i32 (ptr, ...) @printf(ptr noundef nonnull dereferenceable(1) @.str.6, i32 noundef %30, i32 noundef %31)
  %indvars.iv.next.i = add nuw nsw i64 %indvars.iv.i, 1
  %exitcond.not.i = icmp eq i64 %indvars.iv.next.i, %wide.trip.count.i
  br i1 %exitcond.not.i, label %Abc_ZddCombPrint.exit, label %.lr.ph.i, !llvm.loop !53

Abc_ZddCombPrint.exit:                            ; preds = %.lr.ph.i, %._crit_edge.thread, %.thread.i
  %putchar.i = tail call i32 @putchar(i32 10)
  %33 = getelementptr inbounds nuw i8, ptr %0, i64 12
  %34 = load i32, ptr %33, align 4, !tbaa !34
  %35 = icmp sgt i32 %34, 0
  br i1 %35, label %.lr.ph.preheader.i30, label %.preheader.i

.lr.ph.preheader.i30:                             ; preds = %Abc_ZddCombPrint.exit
  %wide.trip.count.i31 = zext nneg i32 %34 to i64
  br label %.lr.ph.i32

.preheader.i:                                     ; preds = %.lr.ph.i32, %Abc_ZddCombPrint.exit
  br i1 %10, label %.lr.ph23.preheader.i, label %Abc_ZddComb2Perm.exit

.lr.ph23.preheader.i:                             ; preds = %.preheader.i
  %36 = and i64 %indvars.iv, 4294967295
  br label %.lr.ph23.i

.lr.ph.i32:                                       ; preds = %.lr.ph.i32, %.lr.ph.preheader.i30
  %indvars.iv.i33 = phi i64 [ 0, %.lr.ph.preheader.i30 ], [ %indvars.iv.next.i34, %.lr.ph.i32 ]
  %37 = getelementptr inbounds nuw i32, ptr %5, i64 %indvars.iv.i33
  %38 = trunc nuw nsw i64 %indvars.iv.i33 to i32
  store i32 %38, ptr %37, align 4, !tbaa !3
  %indvars.iv.next.i34 = add nuw nsw i64 %indvars.iv.i33, 1
  %exitcond.not.i35 = icmp eq i64 %indvars.iv.next.i34, %wide.trip.count.i31
  br i1 %exitcond.not.i35, label %.preheader.i, label %.lr.ph.i32, !llvm.loop !56

.lr.ph23.i:                                       ; preds = %.lr.ph23.i, %.lr.ph23.preheader.i
  %indvars.iv25.i = phi i64 [ %36, %.lr.ph23.preheader.i ], [ %indvars.iv.next26.i, %.lr.ph23.i ]
  %indvars.iv.next26.i = add nsw i64 %indvars.iv25.i, -1
  %39 = getelementptr inbounds nuw i32, ptr %6, i64 %indvars.iv.next26.i
  %40 = load i32, ptr %39, align 4, !tbaa !3
  %41 = ashr i32 %40, 16
  %42 = sext i32 %41 to i64
  %43 = getelementptr inbounds i32, ptr %5, i64 %42
  %44 = load i32, ptr %43, align 4, !tbaa !3
  %45 = and i32 %40, 65535
  %46 = zext nneg i32 %45 to i64
  %47 = getelementptr inbounds nuw i32, ptr %5, i64 %46
  %48 = load i32, ptr %47, align 4, !tbaa !3
  store i32 %48, ptr %43, align 4, !tbaa !3
  store i32 %44, ptr %47, align 4, !tbaa !3
  %49 = icmp samesign ugt i64 %indvars.iv25.i, 1
  br i1 %49, label %.lr.ph23.i, label %Abc_ZddComb2Perm.exit, !llvm.loop !57

Abc_ZddComb2Perm.exit:                            ; preds = %.lr.ph23.i, %.preheader.i
  %putchar.i36 = tail call i32 @putchar(i32 123)
  br i1 %35, label %.lr.ph.preheader.i37, label %Abc_ZddPermPrint.exit

.lr.ph.preheader.i37:                             ; preds = %Abc_ZddComb2Perm.exit
  %wide.trip.count.i38 = zext nneg i32 %34 to i64
  br label %.lr.ph.i39

.lr.ph.i39:                                       ; preds = %.lr.ph.i39, %.lr.ph.preheader.i37
  %indvars.iv.i40 = phi i64 [ 0, %.lr.ph.preheader.i37 ], [ %indvars.iv.next.i41, %.lr.ph.i39 ]
  %50 = getelementptr inbounds nuw i32, ptr %5, i64 %indvars.iv.i40
  %51 = load i32, ptr %50, align 4, !tbaa !3
  %52 = tail call i32 (ptr, ...) @printf(ptr noundef nonnull dereferenceable(1) @.str.3, i32 noundef %51)
  %indvars.iv.next.i41 = add nuw nsw i64 %indvars.iv.i40, 1
  %exitcond.not.i42 = icmp eq i64 %indvars.iv.next.i41, %wide.trip.count.i38
  br i1 %exitcond.not.i42, label %Abc_ZddPermPrint.exit, label %.lr.ph.i39, !llvm.loop !52

Abc_ZddPermPrint.exit:                            ; preds = %.lr.ph.i39, %Abc_ZddComb2Perm.exit
  %puts.i = tail call i32 @puts(ptr nonnull dereferenceable(1) @str)
  call void @llvm.lifetime.end.p0(i64 96, ptr nonnull %6) #23
  call void @llvm.lifetime.end.p0(i64 96, ptr nonnull %5) #23
  br label %.loopexit

53:                                               ; preds = %tailrecurse
  %.val = load ptr, ptr %7, align 8, !tbaa !18
  %54 = sext i32 %.tr43 to i64
  %55 = getelementptr inbounds %struct.Abc_ZddObj_, ptr %.val, i64 %54
  %56 = getelementptr inbounds nuw i8, ptr %55, i64 8
  %57 = load i32, ptr %56, align 4, !tbaa !21
  %58 = trunc nsw i64 %indvars.iv to i32
  tail call void @Abc_ZddPrint_rec(ptr noundef %0, i32 noundef %57, ptr noundef %2, i32 noundef %58)
  %59 = load i32, ptr %55, align 4
  %60 = and i32 %59, 2147483647
  %61 = getelementptr inbounds i32, ptr %2, i64 %indvars.iv
  store i32 %60, ptr %61, align 4, !tbaa !3
  %62 = getelementptr inbounds nuw i8, ptr %55, i64 4
  %63 = load i32, ptr %62, align 4, !tbaa !19
  %indvars.iv.next = add nsw i64 %indvars.iv, 1
  %indvars.iv.next54 = add i32 %indvars.iv53, 1
  br label %tailrecurse

.loopexit:                                        ; preds = %tailrecurse, %Abc_ZddPermPrint.exit
  ret void
}